; ModuleID = '39/1643.c'
source_filename = "39/1643.c"
target datalayout = "e-m:e-p270:32:32-p271:32:32-p272:64:64-i64:64-f80:128-n8:16:32:64-S128"
target triple = "x86_64-pc-linux-gnu"

%struct.student = type { [20 x i8], i32, i32, i8, i8, i32 }

@.str = private unnamed_addr constant [4 x i8] c"%d\0A\00", align 1
@.str.1 = private unnamed_addr constant [18 x i8] c"%s %d %d %c %c %d\00", align 1
@.str.2 = private unnamed_addr constant [9 x i8] c"%s\0A%d\0A%d\00", align 1

; Function Attrs: noinline nounwind uwtable
define dso_local void @main() #0 {
  %1 = alloca i32, align 4
  %2 = alloca i32, align 4
  %3 = alloca [100 x i32], align 16
  %4 = alloca i32, align 4
  %5 = alloca i32, align 4
  %6 = alloca i32, align 4
  %7 = alloca [100 x %struct.student], align 16
  %8 = call i32 (i8*, ...) @__isoc99_scanf(i8* getelementptr inbounds ([4 x i8], [4 x i8]* @.str, i64 0, i64 0), i32* %1)
  store i32 0, i32* %2, align 4
  br label %9

9:                                                ; preds = %69, %0
  %10 = load i32, i32* %2, align 4
  %11 = load i32, i32* %1, align 4
  %12 = icmp slt i32 %10, %11
  br i1 %12, label %13, label %72

13:                                               ; preds = %9
  %14 = load i32, i32* %2, align 4
  %15 = sext i32 %14 to i64
  %16 = getelementptr inbounds [100 x %struct.student], [100 x %struct.student]* %7, i64 0, i64 %15
  %17 = getelementptr inbounds %struct.student, %struct.student* %16, i32 0, i32 0
  %18 = getelementptr inbounds [20 x i8], [20 x i8]* %17, i64 0, i64 0
  %19 = load i32, i32* %2, align 4
  %20 = sext i32 %19 to i64
  %21 = getelementptr inbounds [100 x %struct.student], [100 x %struct.student]* %7, i64 0, i64 %20
  %22 = getelementptr inbounds %struct.student, %struct.student* %21, i32 0, i32 1
  %23 = load i32, i32* %2, align 4
  %24 = sext i32 %23 to i64
  %25 = getelementptr inbounds [100 x %struct.student], [100 x %struct.student]* %7, i64 0, i64 %24
  %26 = getelementptr inbounds %struct.student, %struct.student* %25, i32 0, i32 2
  %27 = load i32, i32* %2, align 4
  %28 = sext i32 %27 to i64
  %29 = getelementptr inbounds [100 x %struct.student], [100 x %struct.student]* %7, i64 0, i64 %28
  %30 = getelementptr inbounds %struct.student, %struct.student* %29, i32 0, i32 3
  %31 = load i32, i32* %2, align 4
  %32 = sext i32 %31 to i64
  %33 = getelementptr inbounds [100 x %struct.student], [100 x %struct.student]* %7, i64 0, i64 %32
  %34 = getelementptr inbounds %struct.student, %struct.student* %33, i32 0, i32 4
  %35 = load i32, i32* %2, align 4
  %36 = sext i32 %35 to i64
  %37 = getelementptr inbounds [100 x %struct.student], [100 x %struct.student]* %7, i64 0, i64 %36
  %38 = getelementptr inbounds %struct.student, %struct.student* %37, i32 0, i32 5
  %39 = call i32 (i8*, ...) @__isoc99_scanf(i8* getelementptr inbounds ([18 x i8], [18 x i8]* @.str.1, i64 0, i64 0), i8* %18, i32* %22, i32* %26, i8* %30, i8* %34, i32* %38)
  %40 = load i32, i32* %2, align 4
  %41 = sext i32 %40 to i64
  %42 = getelementptr inbounds [100 x %struct.student], [100 x %struct.student]* %7, i64 0, i64 %41
  %43 = getelementptr inbounds %struct.student, %struct.student* %42, i32 0, i32 1
  %44 = load i32, i32* %43, align 4
  %45 = load i32, i32* %2, align 4
  %46 = sext i32 %45 to i64
  %47 = getelementptr inbounds [100 x %struct.student], [100 x %struct.student]* %7, i64 0, i64 %46
  %48 = getelementptr inbounds %struct.student, %struct.student* %47, i32 0, i32 2
  %49 = load i32, i32* %48, align 4
  %50 = load i32, i32* %2, align 4
  %51 = sext i32 %50 to i64
  %52 = getelementptr inbounds [100 x %struct.student], [100 x %struct.student]* %7, i64 0, i64 %51
  %53 = getelementptr inbounds %struct.student, %struct.student* %52, i32 0, i32 3
  %54 = load i8, i8* %53, align 4
  %55 = load i32, i32* %2, align 4
  %56 = sext i32 %55 to i64
  %57 = getelementptr inbounds [100 x %struct.student], [100 x %struct.student]* %7, i64 0, i64 %56
  %58 = getelementptr inbounds %struct.student, %struct.student* %57, i32 0, i32 4
  %59 = load i8, i8* %58, align 1
  %60 = load i32, i32* %2, align 4
  %61 = sext i32 %60 to i64
  %62 = getelementptr inbounds [100 x %struct.student], [100 x %struct.student]* %7, i64 0, i64 %61
  %63 = getelementptr inbounds %struct.student, %struct.student* %62, i32 0, i32 5
  %64 = load i32, i32* %63, align 4
  %65 = call i32 @jiangj(i32 %44, i32 %49, i8 signext %54, i8 signext %59, i32 %64)
  %66 = load i32, i32* %2, align 4
  %67 = sext i32 %66 to i64
  %68 = getelementptr inbounds [100 x i32], [100 x i32]* %3, i64 0, i64 %67
  store i32 %65, i32* %68, align 4
  br label %69

69:                                               ; preds = %13
  %70 = load i32, i32* %2, align 4
  %71 = add nsw i32 %70, 1
  store i32 %71, i32* %2, align 4
  br label %9

72:                                               ; preds = %9
  store i32 0, i32* %2, align 4
  store i32 0, i32* %5, align 4
  store i32 0, i32* %4, align 4
  br label %73

73:                                               ; preds = %97, %72
  %74 = load i32, i32* %2, align 4
  %75 = load i32, i32* %1, align 4
  %76 = icmp slt i32 %74, %75
  br i1 %76, label %77, label %100

77:                                               ; preds = %73
  %78 = load i32, i32* %4, align 4
  %79 = load i32, i32* %2, align 4
  %80 = sext i32 %79 to i64
  %81 = getelementptr inbounds [100 x i32], [100 x i32]* %3, i64 0, i64 %80
  %82 = load i32, i32* %81, align 4
  %83 = add nsw i32 %78, %82
  store i32 %83, i32* %4, align 4
  %84 = load i32, i32* %5, align 4
  %85 = load i32, i32* %2, align 4
  %86 = sext i32 %85 to i64
  %87 = getelementptr inbounds [100 x i32], [100 x i32]* %3, i64 0, i64 %86
  %88 = load i32, i32* %87, align 4
  %89 = icmp slt i32 %84, %88
  br i1 %89, label %90, label %96

90:                                               ; preds = %77
  %91 = load i32, i32* %2, align 4
  store i32 %91, i32* %6, align 4
  %92 = load i32, i32* %2, align 4
  %93 = sext i32 %92 to i64
  %94 = getelementptr inbounds [100 x i32], [100 x i32]* %3, i64 0, i64 %93
  %95 = load i32, i32* %94, align 4
  store i32 %95, i32* %5, align 4
  br label %96

96:                                               ; preds = %90, %77
  br label %97

97:                                               ; preds = %96
  %98 = load i32, i32* %2, align 4
  %99 = add nsw i32 %98, 1
  store i32 %99, i32* %2, align 4
  br label %73

100:                                              ; preds = %73
  %101 = load i32, i32* %6, align 4
  %102 = sext i32 %101 to i64
  %103 = getelementptr inbounds [100 x %struct.student], [100 x %struct.student]* %7, i64 0, i64 %102
  %104 = getelementptr inbounds %struct.student, %struct.student* %103, i32 0, i32 0
  %105 = getelementptr inbounds [20 x i8], [20 x i8]* %104, i64 0, i64 0
  %106 = load i32, i32* %6, align 4
  %107 = sext i32 %106 to i64
  %108 = getelementptr inbounds [100 x i32], [100 x i32]* %3, i64 0, i64 %107
  %109 = load i32, i32* %108, align 4
  %110 = load i32, i32* %4, align 4
  %111 = call i32 (i8*, ...) @printf(i8* getelementptr inbounds ([9 x i8], [9 x i8]* @.str.2, i64 0, i64 0), i8* %105, i32 %109, i32 %110)
  ret void
}

declare dso_local i32 @__isoc99_scanf(i8*, ...) #1

; Function Attrs: noinline nounwind uwtable
define dso_local i32 @jiangj(i32 %0, i32 %1, i8 signext %2, i8 signext %3, i32 %4) #0 {
  %6 = alloca i32, align 4
  %7 = alloca i32, align 4
  %8 = alloca i8, align 1
  %9 = alloca i8, align 1
  %10 = alloca i32, align 4
  %11 = alloca i32, align 4
  store i32 %0, i32* %6, align 4
  store i32 %1, i32* %7, align 4
  store i8 %2, i8* %8, align 1
  store i8 %3, i8* %9, align 1
  store i32 %4, i32* %10, align 4
  store i32 0, i32* %11, align 4
  %12 = load i32, i32* %6, align 4
  %13 = icmp sgt i32 %12, 80
  br i1 %13, label %14, label %20

14:                                               ; preds = %5
  %15 = load i32, i32* %10, align 4
  %16 = icmp sgt i32 %15, 0
  br i1 %16, label %17, label %20

17:                                               ; preds = %14
  %18 = load i32, i32* %11, align 4
  %19 = add nsw i32 %18, 8000
  store i32 %19, i32* %11, align 4
  br label %20

20:                                               ; preds = %17, %14, %5
  %21 = load i32, i32* %6, align 4
  %22 = icmp sgt i32 %21, 85
  br i1 %22, label %23, label %29

23:                                               ; preds = %20
  %24 = load i32, i32* %7, align 4
  %25 = icmp sgt i32 %24, 80
  br i1 %25, label %26, label %29

26:                                               ; preds = %23
  %27 = load i32, i32* %11, align 4
  %28 = add nsw i32 %27, 4000
  store i32 %28, i32* %11, align 4
  br label %29

29:                                               ; preds = %26, %23, %20
  %30 = load i32, i32* %6, align 4
  %31 = icmp sgt i32 %30, 90
  br i1 %31, label %32, label %35

32:                                               ; preds = %29
  %33 = load i32, i32* %11, align 4
  %34 = add nsw i32 %33, 2000
  store i32 %34, i32* %11, align 4
  br label %35

35:                                               ; preds = %32, %29
  %36 = load i32, i32* %6, align 4
  %37 = icmp sgt i32 %36, 85
  br i1 %37, label %38, label %45

38:                                               ; preds = %35
  %39 = load i8, i8* %9, align 1
  %40 = sext i8 %39 to i32
  %41 = icmp eq i32 %40, 89
  br i1 %41, label %42, label %45

42:                                               ; preds = %38
  %43 = load i32, i32* %11, align 4
  %44 = add nsw i32 %43, 1000
  store i32 %44, i32* %11, align 4
  br label %45

45:                                               ; preds = %42, %38, %35
  %46 = load i32, i32* %7, align 4
  %47 = icmp sgt i32 %46, 80
  br i1 %47, label %48, label %55

48:                                               ; preds = %45
  %49 = load i8, i8* %8, align 1
  %50 = sext i8 %49 to i32
  %51 = icmp eq i32 %50, 89
  br i1 %51, label %52, label %55

52:                                               ; preds = %48
  %53 = load i32, i32* %11, align 4
  %54 = add nsw i32 %53, 850
  store i32 %54, i32* %11, align 4
  br label %55

55:                                               ; preds = %52, %48, %45
  %56 = load i32, i32* %11, align 4
  ret i32 %56
}

declare dso_local i32 @printf(i8*, ...) #1


!llvm.module.flags = !{!0}
!llvm.ident = !{!1}

!0 = !{i32 1, !"wchar_size", i32 4}
!1 = !{!"clang version 10.0.0-4ubuntu1 "}
